target datalayout = "e-m:e-p270:32:32-p271:32:32-p272:64:64-i64:64-i128:128-f80:128-n8:16:32:64-S128"
target triple = "x86_64-pc-linux-gnu"

%struct.mime_header_st = type { ptr, ptr, ptr }

@.str = private unnamed_addr constant [34 x i8] c"../openssl/crypto/asn1/asn_mime.c\00", align 1

; Function Attrs: inlinehint nounwind uwtable
define internal void @sk_MIME_PARAM_pop_free(ptr noundef %0, ptr noundef %1) #3 {
  %3 = alloca ptr, align 8
  %4 = alloca ptr, align 8
  store ptr %0, ptr %3, align 8, !tbaa !88
  store ptr %1, ptr %4, align 8, !tbaa !74
  %5 = load ptr, ptr %3, align 8, !tbaa !88
  %6 = load ptr, ptr %4, align 8, !tbaa !74
  call void @OPENSSL_sk_pop_free(ptr noundef %5, ptr noundef %6)
  ret void
}

; Function Attrs: nounwind uwtable
define internal void @mime_hdr_free(ptr noundef %0) #0 {
  %2 = alloca ptr, align 8
  store ptr %0, ptr %2, align 8, !tbaa !60
  %3 = load ptr, ptr %2, align 8, !tbaa !60
  %4 = icmp eq ptr %3, null
  br i1 %4, label %5, label %6

5:                                                ; preds = %1
  br label %23

6:                                                ; preds = %1
  %7 = load ptr, ptr %2, align 8, !tbaa !60
  %8 = getelementptr inbounds nuw %struct.mime_header_st, ptr %7, i32 0, i32 0
  %9 = load ptr, ptr %8, align 8, !tbaa !73
  call void @CRYPTO_free(ptr noundef %9, ptr noundef @.str, i32 noundef 970)
  %10 = load ptr, ptr %2, align 8, !tbaa !60
  %11 = getelementptr inbounds nuw %struct.mime_header_st, ptr %10, i32 0, i32 1
  %12 = load ptr, ptr %11, align 8, !tbaa !62
  call void @CRYPTO_free(ptr noundef %12, ptr noundef @.str, i32 noundef 971)
  %13 = load ptr, ptr %2, align 8, !tbaa !60
  %14 = getelementptr inbounds nuw %struct.mime_header_st, ptr %13, i32 0, i32 2
  %15 = load ptr, ptr %14, align 8, !tbaa !71
  %16 = icmp ne ptr %15, null
  br i1 %16, label %17, label %21

17:                                               ; preds = %6
  %18 = load ptr, ptr %2, align 8, !tbaa !60
  %19 = getelementptr inbounds nuw %struct.mime_header_st, ptr %18, i32 0, i32 2
  %20 = load ptr, ptr %19, align 8, !tbaa !71
  call void @sk_MIME_PARAM_pop_free(ptr noundef %20, ptr noundef @mime_param_free)
  br label %21

21:                                               ; preds = %17, %6
  %22 = load ptr, ptr %2, align 8, !tbaa !60
  call void @CRYPTO_free(ptr noundef %22, ptr noundef @.str, i32 noundef 974)
  br label %23

23:                                               ; preds = %21, %5
  ret void
}